target datalayout = "e-m:e-p270:32:32-p271:32:32-p272:64:64-i64:64-i128:128-f80:128-n8:16:32:64-S128"
target triple = "x86_64-pc-linux-gnu"

%struct._generic_N_Vector = type { ptr, ptr, ptr }
%struct._N_VectorContent_Serial = type { i64, i32, ptr }

@.str.26 = private unnamed_addr constant [16 x i8] c"IDAGetLastOrder\00", align 1
@.str.27 = private unnamed_addr constant [15 x i8] c"IDAGetNumSteps\00", align 1
@.str.28 = private unnamed_addr constant [15 x i8] c"IDAGetLastStep\00", align 1
@.str.29 = private unnamed_addr constant [42 x i8] c"%8.2e %12.4e %12.4e   | %3ld  %1d %12.4e\0A\00", align 1
@.str.30 = private unnamed_addr constant [28 x i8] c"         %12.4e %12.4e   |\0A\00", align 1
@.str.31 = private unnamed_addr constant [2 x i8] c"\0A\00", align 1
@stderr = external global ptr, align 8
@.str.45 = private unnamed_addr constant [55 x i8] c"\0ASUNDIALS_ERROR: %s() failed - returned NULL pointer\0A\0A\00", align 1
@.str.46 = private unnamed_addr constant [48 x i8] c"\0ASUNDIALS_ERROR: %s() failed with retval = %d\0A\0A\00", align 1
@.str.47 = private unnamed_addr constant [53 x i8] c"\0AMEMORY_ERROR: %s() failed - returned NULL pointer\0A\0A\00", align 1

; Function Attrs: nounwind uwtable
define internal i32 @check_retval(ptr noundef %0, ptr noundef %1, i32 noundef %2) #0 {
  %4 = alloca i32, align 4
  %5 = alloca ptr, align 8
  %6 = alloca ptr, align 8
  %7 = alloca i32, align 4
  %8 = alloca ptr, align 8
  %9 = alloca i32, align 4
  store ptr %0, ptr %5, align 8, !tbaa !4
  store ptr %1, ptr %6, align 8, !tbaa !28
  store i32 %2, ptr %7, align 4, !tbaa !12
  call void @llvm.lifetime.start.p0(i64 8, ptr %8) #6
  %10 = load i32, ptr %7, align 4, !tbaa !12
  %11 = icmp eq i32 %10, 0
  br i1 %11, label %12, label %19

12:                                               ; preds = %3
  %13 = load ptr, ptr %5, align 8, !tbaa !4
  %14 = icmp eq ptr %13, null
  br i1 %14, label %15, label %19

15:                                               ; preds = %12
  %16 = load ptr, ptr @stderr, align 8, !tbaa !30
  %17 = load ptr, ptr %6, align 8, !tbaa !28
  %18 = call i32 (ptr, ptr, ...) @fprintf(ptr noundef %16, ptr noundef @.str.45, ptr noundef %17) #6
  store i32 1, ptr %4, align 4
  store i32 1, ptr %9, align 4
  br label %47

19:                                               ; preds = %12, %3
  %20 = load i32, ptr %7, align 4, !tbaa !12
  %21 = icmp eq i32 %20, 1
  br i1 %21, label %22, label %34

22:                                               ; preds = %19
  %23 = load ptr, ptr %5, align 8, !tbaa !4
  store ptr %23, ptr %8, align 8, !tbaa !32
  %24 = load ptr, ptr %8, align 8, !tbaa !32
  %25 = load i32, ptr %24, align 4, !tbaa !12
  %26 = icmp slt i32 %25, 0
  br i1 %26, label %27, label %33

27:                                               ; preds = %22
  %28 = load ptr, ptr @stderr, align 8, !tbaa !30
  %29 = load ptr, ptr %6, align 8, !tbaa !28
  %30 = load ptr, ptr %8, align 8, !tbaa !32
  %31 = load i32, ptr %30, align 4, !tbaa !12
  %32 = call i32 (ptr, ptr, ...) @fprintf(ptr noundef %28, ptr noundef @.str.46, ptr noundef %29, i32 noundef %31) #6
  store i32 1, ptr %4, align 4
  store i32 1, ptr %9, align 4
  br label %47

33:                                               ; preds = %22
  br label %45

34:                                               ; preds = %19
  %35 = load i32, ptr %7, align 4, !tbaa !12
  %36 = icmp eq i32 %35, 2
  br i1 %36, label %37, label %44

37:                                               ; preds = %34
  %38 = load ptr, ptr %5, align 8, !tbaa !4
  %39 = icmp eq ptr %38, null
  br i1 %39, label %40, label %44

40:                                               ; preds = %37
  %41 = load ptr, ptr @stderr, align 8, !tbaa !30
  %42 = load ptr, ptr %6, align 8, !tbaa !28
  %43 = call i32 (ptr, ptr, ...) @fprintf(ptr noundef %41, ptr noundef @.str.47, ptr noundef %42) #6
  store i32 1, ptr %4, align 4
  store i32 1, ptr %9, align 4
  br label %47

44:                                               ; preds = %37, %34
  br label %45

45:                                               ; preds = %44, %33
  br label %46

46:                                               ; preds = %45
  store i32 0, ptr %4, align 4
  store i32 1, ptr %9, align 4
  br label %47

47:                                               ; preds = %46, %40, %27, %15
  call void @llvm.lifetime.end.p0(i64 8, ptr %8) #6
  %48 = load i32, ptr %4, align 4
  ret i32 %48
}

; Function Attrs: nounwind uwtable
define internal void @PrintOutput(ptr noundef %0, ptr noundef %1, double noundef %2) #0 {
  %4 = alloca ptr, align 8
  %5 = alloca ptr, align 8
  %6 = alloca double, align 8
  %7 = alloca i32, align 4
  %8 = alloca i32, align 4
  %9 = alloca i32, align 4
  %10 = alloca i64, align 8
  %11 = alloca ptr, align 8
  %12 = alloca ptr, align 8
  %13 = alloca double, align 8
  store ptr %0, ptr %4, align 8, !tbaa !4
  store ptr %1, ptr %5, align 8, !tbaa !8
  store double %2, ptr %6, align 8, !tbaa !26
  call void @llvm.lifetime.start.p0(i64 4, ptr %7) #6
  call void @llvm.lifetime.start.p0(i64 4, ptr %8) #6
  call void @llvm.lifetime.start.p0(i64 4, ptr %9) #6
  call void @llvm.lifetime.start.p0(i64 8, ptr %10) #6
  call void @llvm.lifetime.start.p0(i64 8, ptr %11) #6
  call void @llvm.lifetime.start.p0(i64 8, ptr %12) #6
  call void @llvm.lifetime.start.p0(i64 8, ptr %13) #6
  %14 = load ptr, ptr %4, align 8, !tbaa !4
  %15 = call i32 @IDAGetLastOrder(ptr noundef %14, ptr noundef %8)
  store i32 %15, ptr %9, align 4, !tbaa !12
  %16 = call i32 @check_retval(ptr noundef %9, ptr noundef @.str.26, i32 noundef 1)
  %17 = load ptr, ptr %4, align 8, !tbaa !4
  %18 = call i32 @IDAGetNumSteps(ptr noundef %17, ptr noundef %10)
  store i32 %18, ptr %9, align 4, !tbaa !12
  %19 = call i32 @check_retval(ptr noundef %9, ptr noundef @.str.27, i32 noundef 1)
  %20 = load ptr, ptr %4, align 8, !tbaa !4
  %21 = call i32 @IDAGetLastStep(ptr noundef %20, ptr noundef %13)
  store i32 %21, ptr %9, align 4, !tbaa !12
  %22 = call i32 @check_retval(ptr noundef %9, ptr noundef @.str.28, i32 noundef 1)
  %23 = load ptr, ptr %5, align 8, !tbaa !8
  %24 = getelementptr inbounds nuw %struct._generic_N_Vector, ptr %23, i32 0, i32 0
  %25 = load ptr, ptr %24, align 8, !tbaa !44
  %26 = getelementptr inbounds nuw %struct._N_VectorContent_Serial, ptr %25, i32 0, i32 2
  %27 = load ptr, ptr %26, align 8, !tbaa !47
  %28 = getelementptr inbounds double, ptr %27, i64 0
  store ptr %28, ptr %11, align 8, !tbaa !42
  %29 = load ptr, ptr %5, align 8, !tbaa !8
  %30 = getelementptr inbounds nuw %struct._generic_N_Vector, ptr %29, i32 0, i32 0
  %31 = load ptr, ptr %30, align 8, !tbaa !44
  %32 = getelementptr inbounds nuw %struct._N_VectorContent_Serial, ptr %31, i32 0, i32 2
  %33 = load ptr, ptr %32, align 8, !tbaa !47
  %34 = getelementptr inbounds double, ptr %33, i64 798
  store ptr %34, ptr %12, align 8, !tbaa !42
  %35 = load double, ptr %6, align 8, !tbaa !26
  %36 = load ptr, ptr %11, align 8, !tbaa !42
  %37 = getelementptr inbounds double, ptr %36, i64 0
  %38 = load double, ptr %37, align 8, !tbaa !26
  %39 = load ptr, ptr %12, align 8, !tbaa !42
  %40 = getelementptr inbounds double, ptr %39, i64 0
  %41 = load double, ptr %40, align 8, !tbaa !26
  %42 = load i64, ptr %10, align 8, !tbaa !41
  %43 = load i32, ptr %8, align 4, !tbaa !12
  %44 = load double, ptr %13, align 8, !tbaa !26
  %45 = call i32 (ptr, ...) @printf(ptr noundef @.str.29, double noundef %35, double noundef %38, double noundef %41, i64 noundef %42, i32 noundef %43, double noundef %44)
  store i32 1, ptr %7, align 4, !tbaa !12
  br label %46

46:                                               ; preds = %61, %3
  %47 = load i32, ptr %7, align 4, !tbaa !12
  %48 = icmp slt i32 %47, 2
  br i1 %48, label %49, label %64

49:                                               ; preds = %46
  %50 = load ptr, ptr %11, align 8, !tbaa !42
  %51 = load i32, ptr %7, align 4, !tbaa !12
  %52 = sext i32 %51 to i64
  %53 = getelementptr inbounds double, ptr %50, i64 %52
  %54 = load double, ptr %53, align 8, !tbaa !26
  %55 = load ptr, ptr %12, align 8, !tbaa !42
  %56 = load i32, ptr %7, align 4, !tbaa !12
  %57 = sext i32 %56 to i64
  %58 = getelementptr inbounds double, ptr %55, i64 %57
  %59 = load double, ptr %58, align 8, !tbaa !26
  %60 = call i32 (ptr, ...) @printf(ptr noundef @.str.30, double noundef %54, double noundef %59)
  br label %61

61:                                               ; preds = %49
  %62 = load i32, ptr %7, align 4, !tbaa !12
  %63 = add nsw i32 %62, 1
  store i32 %63, ptr %7, align 4, !tbaa !12
  br label %46

64:                                               ; preds = %46
  %65 = call i32 (ptr, ...) @printf(ptr noundef @.str.31)
  call void @llvm.lifetime.end.p0(i64 8, ptr %13) #6
  call void @llvm.lifetime.end.p0(i64 8, ptr %12) #6
  call void @llvm.lifetime.end.p0(i64 8, ptr %11) #6
  call void @llvm.lifetime.end.p0(i64 8, ptr %10) #6
  call void @llvm.lifetime.end.p0(i64 4, ptr %9) #6
  call void @llvm.lifetime.end.p0(i64 4, ptr %8) #6
  call void @llvm.lifetime.end.p0(i64 4, ptr %7) #6
  ret void
}