; Function Attrs: nounwind uwtable
define internal fastcc void @PrintOutput(ptr noundef %0, ptr noundef readonly captures(none) %1, double noundef %2) unnamed_addr #0 {
.critedge:
  %3 = alloca i32, align 4
  %4 = alloca i64, align 8
  %5 = alloca double, align 8
  call void @llvm.lifetime.start.p0(i64 4, ptr nonnull %3) #12
  call void @llvm.lifetime.start.p0(i64 8, ptr nonnull %4) #12
  call void @llvm.lifetime.start.p0(i64 8, ptr nonnull %5) #12
  %6 = call i32 @IDAGetLastOrder(ptr noundef %0, ptr noundef nonnull %3) #12
  %7 = icmp slt i32 %6, 0
  br i1 %7, label %8, label %check_retval.exit

8:                                                ; preds = %.critedge
  %9 = load ptr, ptr @stderr, align 8, !tbaa !4
  %10 = call i32 (ptr, ptr, ...) @fprintf(ptr noundef %9, ptr noundef nonnull @.str.46, ptr noundef nonnull @.str.26, i32 noundef %6) #13
  br label %check_retval.exit

check_retval.exit:                                ; preds = %.critedge, %8
  %11 = call i32 @IDAGetNumSteps(ptr noundef %0, ptr noundef nonnull %4) #12
  %12 = icmp slt i32 %11, 0
  br i1 %12, label %13, label %check_retval.exit14

13:                                               ; preds = %check_retval.exit
  %14 = load ptr, ptr @stderr, align 8, !tbaa !4
  %15 = call i32 (ptr, ptr, ...) @fprintf(ptr noundef %14, ptr noundef nonnull @.str.46, ptr noundef nonnull @.str.27, i32 noundef %11) #13
  br label %check_retval.exit14

check_retval.exit14:                              ; preds = %check_retval.exit, %13
  %16 = call i32 @IDAGetLastStep(ptr noundef %0, ptr noundef nonnull %5) #12
  %17 = icmp slt i32 %16, 0
  br i1 %17, label %18, label %check_retval.exit16

18:                                               ; preds = %check_retval.exit14
  %19 = load ptr, ptr @stderr, align 8, !tbaa !4
  %20 = call i32 (ptr, ptr, ...) @fprintf(ptr noundef %19, ptr noundef nonnull @.str.46, ptr noundef nonnull @.str.28, i32 noundef %16) #13
  br label %check_retval.exit16

check_retval.exit16:                              ; preds = %check_retval.exit14, %18
  %21 = load ptr, ptr %1, align 8, !tbaa !34
  %22 = getelementptr inbounds nuw i8, ptr %21, i64 16
  %23 = load ptr, ptr %22, align 8, !tbaa !37
  %24 = getelementptr inbounds nuw i8, ptr %23, i64 6384
  %25 = load double, ptr %23, align 8, !tbaa !31
  %26 = load double, ptr %24, align 8, !tbaa !31
  %27 = load i64, ptr %4, align 8, !tbaa !41
  %28 = load i32, ptr %3, align 4, !tbaa !40
  %29 = load double, ptr %5, align 8, !tbaa !31
  %30 = call i32 (ptr, ...) @printf(ptr noundef nonnull dereferenceable(1) @.str.29, double noundef %2, double noundef %25, double noundef %26, i64 noundef %27, i32 noundef %28, double noundef %29)
  %31 = getelementptr inbounds nuw i8, ptr %23, i64 8
  %32 = load double, ptr %31, align 8, !tbaa !31
  %33 = getelementptr inbounds nuw i8, ptr %23, i64 6392
  %34 = load double, ptr %33, align 8, !tbaa !31
  %35 = call i32 (ptr, ...) @printf(ptr noundef nonnull dereferenceable(1) @.str.30, double noundef %32, double noundef %34)
  %putchar = call i32 @putchar(i32 10)
  call void @llvm.lifetime.end.p0(i64 8, ptr nonnull %5) #12
  call void @llvm.lifetime.end.p0(i64 8, ptr nonnull %4) #12
  call void @llvm.lifetime.end.p0(i64 4, ptr nonnull %3) #12
  ret void
}